target datalayout = "e-m:e-p270:32:32-p271:32:32-p272:64:64-i64:64-i128:128-f80:128-n8:16:32:64-S128"
target triple = "x86_64-pc-linux-gnu"

%"class.toku::range_buffer::iterator" = type { %"class.memarena::chunk_iterator", ptr, i64, i64, i64 }
%"class.memarena::chunk_iterator" = type <{ ptr, i32, [4 x i8] }>
%"class.toku::range_buffer" = type <{ %class.memarena, i32, [4 x i8] }>
%class.memarena = type { %"struct.memarena::arena_chunk", ptr, i32, i64, i64 }
%"struct.memarena::arena_chunk" = type { ptr, i64, i64 }

; Function Attrs: mustprogress uwtable
define void @_ZN4toku12range_buffer8iterator19reset_current_chunkEv(ptr noundef nonnull align 8 dereferenceable(48) %0) #1 align 2 {
  %2 = alloca ptr, align 8
  store ptr %0, ptr %2, align 8, !tbaa !43
  %3 = load ptr, ptr %2, align 8
  %4 = getelementptr inbounds nuw %"class.toku::range_buffer::iterator", ptr %3, i32 0, i32 0
  %5 = getelementptr inbounds nuw %"class.toku::range_buffer::iterator", ptr %3, i32 0, i32 3
  %6 = call noundef ptr @_ZNK8memarena14chunk_iterator7currentEPm(ptr noundef nonnull align 8 dereferenceable(12) %4, ptr noundef %5)
  %7 = getelementptr inbounds nuw %"class.toku::range_buffer::iterator", ptr %3, i32 0, i32 1
  store ptr %6, ptr %7, align 8, !tbaa !45
  %8 = getelementptr inbounds nuw %"class.toku::range_buffer::iterator", ptr %3, i32 0, i32 2
  store i64 0, ptr %8, align 8, !tbaa !49
  ret void
}

; Function Attrs: mustprogress nounwind uwtable
define linkonce_odr void @_ZN8memarena14chunk_iteratorC2EPKS_(ptr noundef nonnull align 8 dereferenceable(12) %0, ptr noundef %1) unnamed_addr #0 comdat align 2 {
  %3 = alloca ptr, align 8
  %4 = alloca ptr, align 8
  store ptr %0, ptr %3, align 8, !tbaa !52
  store ptr %1, ptr %4, align 8, !tbaa !54
  %5 = load ptr, ptr %3, align 8
  %6 = getelementptr inbounds nuw %"class.memarena::chunk_iterator", ptr %5, i32 0, i32 0
  %7 = load ptr, ptr %4, align 8, !tbaa !54
  store ptr %7, ptr %6, align 8, !tbaa !55
  %8 = getelementptr inbounds nuw %"class.memarena::chunk_iterator", ptr %5, i32 0, i32 1
  store i32 -1, ptr %8, align 8, !tbaa !56
  ret void
}

; Function Attrs: mustprogress uwtable
define void @_ZN4toku12range_buffer8iteratorC2EPKS0_(ptr noundef nonnull align 8 dereferenceable(48) %0, ptr noundef %1) unnamed_addr #1 align 2 {
  %3 = alloca ptr, align 8
  %4 = alloca ptr, align 8
  store ptr %0, ptr %3, align 8, !tbaa !43
  store ptr %1, ptr %4, align 8, !tbaa !57
  %5 = load ptr, ptr %3, align 8
  %6 = getelementptr inbounds nuw %"class.toku::range_buffer::iterator", ptr %5, i32 0, i32 0
  %7 = load ptr, ptr %4, align 8, !tbaa !57
  %8 = getelementptr inbounds nuw %"class.toku::range_buffer", ptr %7, i32 0, i32 0
  call void @_ZN8memarena14chunk_iteratorC2EPKS_(ptr noundef nonnull align 8 dereferenceable(12) %6, ptr noundef %8)
  %9 = getelementptr inbounds nuw %"class.toku::range_buffer::iterator", ptr %5, i32 0, i32 1
  store ptr null, ptr %9, align 8, !tbaa !45
  %10 = getelementptr inbounds nuw %"class.toku::range_buffer::iterator", ptr %5, i32 0, i32 2
  store i64 0, ptr %10, align 8, !tbaa !49
  %11 = getelementptr inbounds nuw %"class.toku::range_buffer::iterator", ptr %5, i32 0, i32 3
  store i64 0, ptr %11, align 8, !tbaa !50
  %12 = getelementptr inbounds nuw %"class.toku::range_buffer::iterator", ptr %5, i32 0, i32 4
  store i64 0, ptr %12, align 8, !tbaa !51
  call void @_ZN4toku12range_buffer8iterator19reset_current_chunkEv(ptr noundef nonnull align 8 dereferenceable(48) %5)
  ret void
}