; Function Attrs: mustprogress uwtable
define void @_ZN4toku12range_buffer8iteratorC2EPKS0_(ptr noundef nonnull align 8 dereferenceable(48) initializes((0, 12), (16, 48)) %0, ptr noundef %1) unnamed_addr #1 align 2 {
  store ptr %1, ptr %0, align 8, !tbaa !30
  %3 = getelementptr inbounds nuw i8, ptr %0, i64 8
  store i32 -1, ptr %3, align 8, !tbaa !33
  %4 = getelementptr inbounds nuw i8, ptr %0, i64 16
  %5 = getelementptr inbounds nuw i8, ptr %0, i64 24
  %6 = getelementptr inbounds nuw i8, ptr %0, i64 32
  tail call void @llvm.memset.p0.i64(ptr noundef nonnull align 8 dereferenceable(32) %4, i8 0, i64 32, i1 false)
  %7 = tail call noundef ptr @_ZNK8memarena14chunk_iterator7currentEPm(ptr noundef nonnull align 8 dereferenceable(48) %0, ptr noundef nonnull %6)
  store ptr %7, ptr %4, align 8, !tbaa !34
  store i64 0, ptr %5, align 8, !tbaa !36
  ret void
}